target datalayout = "e-m:e-p270:32:32-p271:32:32-p272:64:64-i64:64-i128:128-f80:128-n8:16:32:64-S128"
target triple = "x86_64-pc-linux-gnu"

@noise = internal global i8 0, align 1
@namecheck.benign = internal constant [56 x i8] c"-/_abcdefghijklmnopqrstuvwxyzABCDEFGHIJKLMNOPQRSTUVWXYZ\00", align 16
@namecheck.printable_and_not_benign = internal constant [41 x i8] c" !\22#$%&'()*+,.0123456789:;<=>?@[\\]^`{|}~\00", align 16
@.str.77 = private unnamed_addr constant [34 x i8] c"file name '%s' contains byte '%c'\00", align 1
@.str.78 = private unnamed_addr constant [35 x i8] c"file name '%s' contains byte '\\%o'\00", align 1

; Function Attrs: nounwind uwtable
define internal zeroext i1 @namecheck(ptr noundef %0) #0 {
  %2 = alloca i1, align 1
  %3 = alloca ptr, align 8
  %4 = alloca ptr, align 8
  %5 = alloca ptr, align 8
  %6 = alloca i8, align 1
  %7 = alloca i32, align 4
  store ptr %0, ptr %3, align 8
  call void @llvm.lifetime.start.p0(i64 8, ptr %4) #13
  call void @llvm.lifetime.start.p0(i64 8, ptr %5) #13
  %8 = load ptr, ptr %3, align 8
  store ptr %8, ptr %5, align 8
  %9 = load ptr, ptr %3, align 8
  store ptr %9, ptr %4, align 8
  br label %10

10:                                               ; preds = %50, %1
  %11 = load ptr, ptr %4, align 8
  %12 = load i8, ptr %11, align 1
  %13 = icmp ne i8 %12, 0
  br i1 %13, label %14, label %53

14:                                               ; preds = %10
  call void @llvm.lifetime.start.p0(i64 1, ptr %6) #13
  %15 = load ptr, ptr %4, align 8
  %16 = load i8, ptr %15, align 1
  store i8 %16, ptr %6, align 1
  %17 = load i8, ptr @noise, align 1, !range !6, !noundef !7
  %18 = trunc i8 %17 to i1
  br i1 %18, label %19, label %33

19:                                               ; preds = %14
  %20 = load i8, ptr %6, align 1
  %21 = zext i8 %20 to i32
  %22 = call ptr @strchr(ptr noundef @namecheck.benign, i32 noundef %21) #14
  %23 = icmp ne ptr %22, null
  br i1 %23, label %33, label %24

24:                                               ; preds = %19
  %25 = load i8, ptr %6, align 1
  %26 = zext i8 %25 to i32
  %27 = call ptr @strchr(ptr noundef @namecheck.printable_and_not_benign, i32 noundef %26) #14
  %28 = icmp ne ptr %27, null
  %29 = select i1 %28, ptr @.str.77, ptr @.str.78
  %30 = load ptr, ptr %3, align 8
  %31 = load i8, ptr %6, align 1
  %32 = zext i8 %31 to i32
  call void (ptr, ...) @warning(ptr noundef %29, ptr noundef %30, i32 noundef %32)
  br label %33

33:                                               ; preds = %24, %19, %14
  %34 = load i8, ptr %6, align 1
  %35 = zext i8 %34 to i32
  %36 = icmp eq i32 %35, 47
  br i1 %36, label %37, label %46

37:                                               ; preds = %33
  %38 = load ptr, ptr %3, align 8
  %39 = load ptr, ptr %5, align 8
  %40 = load ptr, ptr %4, align 8
  %41 = call zeroext i1 @componentcheck(ptr noundef %38, ptr noundef %39, ptr noundef %40)
  br i1 %41, label %43, label %42

42:                                               ; preds = %37
  store i1 false, ptr %2, align 1
  store i32 1, ptr %7, align 4
  br label %47

43:                                               ; preds = %37
  %44 = load ptr, ptr %4, align 8
  %45 = getelementptr inbounds i8, ptr %44, i64 1
  store ptr %45, ptr %5, align 8
  br label %46

46:                                               ; preds = %43, %33
  store i32 0, ptr %7, align 4
  br label %47

47:                                               ; preds = %46, %42
  call void @llvm.lifetime.end.p0(i64 1, ptr %6) #13
  %48 = load i32, ptr %7, align 4
  switch i32 %48, label %58 [
    i32 0, label %49
  ]

49:                                               ; preds = %47
  br label %50

50:                                               ; preds = %49
  %51 = load ptr, ptr %4, align 8
  %52 = getelementptr inbounds nuw i8, ptr %51, i32 1
  store ptr %52, ptr %4, align 8
  br label %10, !llvm.loop !43

53:                                               ; preds = %10
  %54 = load ptr, ptr %3, align 8
  %55 = load ptr, ptr %5, align 8
  %56 = load ptr, ptr %4, align 8
  %57 = call zeroext i1 @componentcheck(ptr noundef %54, ptr noundef %55, ptr noundef %56)
  store i1 %57, ptr %2, align 1
  store i32 1, ptr %7, align 4
  br label %58

58:                                               ; preds = %53, %47
  call void @llvm.lifetime.end.p0(i64 8, ptr %5) #13
  call void @llvm.lifetime.end.p0(i64 8, ptr %4) #13
  %59 = load i1, ptr %2, align 1
  ret i1 %59
}