; Function Attrs: nounwind uwtable
define internal fastcc noundef zeroext i1 @namecheck(ptr noundef %0) unnamed_addr #0 {
  %2 = load i8, ptr %0, align 1
  %.not34 = icmp eq i8 %2, 0
  br i1 %.not34, label %._crit_edge, label %.lr.ph

.lr.ph:                                           ; preds = %1, %.thread
  %3 = phi i8 [ %14, %.thread ], [ %2, %1 ]
  %.01936 = phi ptr [ %.22131, %.thread ], [ %0, %1 ]
  %.02235 = phi ptr [ %13, %.thread ], [ %0, %1 ]
  %.b24 = load i1, ptr @noise, align 1
  br i1 %.b24, label %4, label %8

4:                                                ; preds = %.lr.ph
  %5 = zext i8 %3 to i32
  %memchr = tail call ptr @memchr(ptr noundef nonnull dereferenceable(1) @namecheck.benign, i32 %5, i64 56)
  %.not25 = icmp eq ptr %memchr, null
  br i1 %.not25, label %6, label %8

6:                                                ; preds = %4
  %memchr26 = tail call ptr @memchr(ptr noundef nonnull dereferenceable(1) @namecheck.printable_and_not_benign, i32 %5, i64 41)
  %.not27 = icmp eq ptr %memchr26, null
  %7 = select i1 %.not27, ptr @.str.78, ptr @.str.77
  tail call void (ptr, ...) @warning(ptr noundef nonnull %7, ptr noundef nonnull %0, i32 noundef %5)
  br label %8

8:                                                ; preds = %6, %4, %.lr.ph
  %9 = icmp eq i8 %3, 47
  br i1 %9, label %10, label %.thread

10:                                               ; preds = %8
  %11 = tail call fastcc zeroext i1 @componentcheck(ptr noundef nonnull %0, ptr noundef %.01936, ptr noundef nonnull %.02235)
  %12 = getelementptr inbounds nuw i8, ptr %.02235, i64 1
  br i1 %11, label %.thread, label %.loopexit

.thread:                                          ; preds = %8, %10
  %.22131 = phi ptr [ %12, %10 ], [ %.01936, %8 ]
  %13 = getelementptr inbounds nuw i8, ptr %.02235, i64 1
  %14 = load i8, ptr %13, align 1
  %.not = icmp eq i8 %14, 0
  br i1 %.not, label %._crit_edge, label %.lr.ph, !llvm.loop !80

._crit_edge:                                      ; preds = %.thread, %1
  %.022.lcssa = phi ptr [ %0, %1 ], [ %13, %.thread ]
  %.019.lcssa = phi ptr [ %0, %1 ], [ %.22131, %.thread ]
  %15 = tail call fastcc zeroext i1 @componentcheck(ptr noundef nonnull %0, ptr noundef %.019.lcssa, ptr noundef nonnull %.022.lcssa)
  br label %.loopexit

.loopexit:                                        ; preds = %10, %._crit_edge
  %.2 = phi i1 [ %15, %._crit_edge ], [ false, %10 ]
  ret i1 %.2
}